; Function Attrs: nounwind uwtable
define void @Gia_ManQuantUpdateCiSupp(ptr noundef captures(none) %0, i32 noundef %1) local_unnamed_addr #2 {
  %3 = getelementptr i8, ptr %0, i64 980
  %.val5 = load i32, ptr %3, align 4, !tbaa !31
  %4 = getelementptr i8, ptr %0, i64 984
  %.val6 = load ptr, ptr %4, align 8, !tbaa !32
  %5 = getelementptr i8, ptr %.val6, i64 8
  %.val6.val = load ptr, ptr %5, align 8, !tbaa !33
  %6 = mul nsw i32 %.val5, %1
  %7 = sext i32 %6 to i64
  %8 = getelementptr inbounds i64, ptr %.val6.val, i64 %7
  %9 = icmp sgt i32 %.val5, 0
  br i1 %9, label %.lr.ph.preheader.i, label %.loopexit

.lr.ph.preheader.i:                               ; preds = %2
  %wide.trip.count.i = zext nneg i32 %.val5 to i64
  br label %.lr.ph.i

10:                                               ; preds = %.lr.ph.i
  %indvars.iv.next.i = add nuw nsw i64 %indvars.iv.i, 1
  %exitcond.not.i = icmp eq i64 %indvars.iv.next.i, %wide.trip.count.i
  br i1 %exitcond.not.i, label %.loopexit, label %.lr.ph.i, !llvm.loop !48

.lr.ph.i:                                         ; preds = %10, %.lr.ph.preheader.i
  %indvars.iv.i = phi i64 [ 0, %.lr.ph.preheader.i ], [ %indvars.iv.next.i, %10 ]
  %11 = getelementptr inbounds nuw i64, ptr %8, i64 %indvars.iv.i
  %12 = load i64, ptr %11, align 8, !tbaa !38
  %.not.i = icmp eq i64 %12, 0
  br i1 %.not.i, label %10, label %Abc_TtIsConst0.exit

.loopexit:                                        ; preds = %10, %2
  %13 = getelementptr i8, ptr %0, i64 32
  %.val = load ptr, ptr %13, align 8, !tbaa !30
  %14 = sext i32 %1 to i64
  %15 = getelementptr inbounds %struct.Gia_Obj_t_, ptr %.val, i64 %14
  tail call void @Gia_ManQuantSetSuppCi(ptr noundef %0, ptr noundef %15)
  br label %Abc_TtIsConst0.exit

Abc_TtIsConst0.exit:                              ; preds = %.lr.ph.i, %.loopexit
  ret void
}